Certificate:
    Data:
        Version: 3 (0x2)
        Serial Number: 1 (0x1)
    Signature Algorithm: sha256WithRSAEncryption
        Issuer: C=TH, ST=BKK, L=BKK, O=MU, OU=Project, CN=Fort-Funston CA/name=EasyRSA/emailAddress=pongsakorn.dec@gmail.com
        Validity
            Not Before: Nov 10 07:59:25 2017 GMT
            Not After : Nov  8 07:59:25 2027 GMT
        Subject: C=TH, ST=BKK, L=BKK, O=MU, OU=Project, CN=IPS/name=EasyRSA/emailAddress=pongsakorn.dec@gmail.com
        Subject Public Key Info:
            Public Key Algorithm: rsaEncryption
                Public-Key: (2048 bit)
                Modulus:
                    00:9d:ab:c5:4b:94:1f:79:df:37:5a:0e:70:3d:25:
                    0c:70:9f:ea:62:85:04:9a:4d:a5:be:13:e7:00:49:
                    f2:44:f5:e7:52:8f:b6:5e:db:45:2b:32:cd:41:2b:
                    70:c5:03:d4:15:26:98:d3:25:6e:0b:c6:46:3a:f1:
                    92:7a:e4:bb:9f:cc:92:b3:7d:4b:58:0f:02:ff:46:
                    8d:3e:12:bc:41:a9:0b:e9:55:d2:59:42:e0:70:23:
                    93:fc:c5:10:94:e0:4d:d1:28:ce:6f:e7:ec:d1:76:
                    af:82:c5:0e:a3:b2:4a:85:6f:73:e8:ed:3d:19:b2:
                    ad:ea:ef:3c:c8:32:1b:75:53:a1:88:1f:43:62:0a:
                    52:d5:04:48:cd:1f:99:b8:f1:20:7f:ac:94:8f:3c:
                    8c:14:bc:aa:e2:0b:18:03:5c:53:27:1f:a1:ac:18:
                    ab:5c:45:01:93:3e:33:bc:0d:83:9e:4d:ba:0d:40:
                    05:77:0a:09:e7:b4:c1:76:cd:0e:c4:d4:d4:f7:01:
                    52:62:22:b1:88:01:26:32:98:c1:a9:ad:66:7d:54:
                    d5:fd:f8:12:08:d0:3f:21:34:bb:19:07:f9:b3:50:
                    ab:11:d9:1f:7f:d8:fd:f3:5e:3a:88:5d:c8:73:94:
                    53:c0:06:7f:66:c4:d9:34:d6:48:32:84:c9:e4:c8:
                    47:bb
                Exponent: 65537 (0x10001)
        X509v3 extensions:
            X509v3 Basic Constraints: 
                CA:FALSE
            Netscape Cert Type: 
                SSL Server
            Netscape Comment: 
                Easy-RSA Generated Server Certificate
            X509v3 Subject Key Identifier: 
                C1:E6:BC:3B:FA:FF:65:AF:AF:DA:72:BC:5A:EF:9C:34:C3:FC:D0:92
            X509v3 Authority Key Identifier: 
                keyid:86:E1:99:47:32:CB:15:93:41:AF:A4:64:98:19:7B:1E:3F:95:16:C1
                DirName:/C=TH/ST=BKK/L=BKK/O=MU/OU=Project/CN=Fort-Funston CA/name=EasyRSA/emailAddress=pongsakorn.dec@gmail.com
                serial:AF:A3:CE:0E:92:5D:31:24

            X509v3 Extended Key Usage: 
                TLS Web Server Authentication
            X509v3 Key Usage: 
                Digital Signature, Key Encipherment
    Signature Algorithm: sha256WithRSAEncryption
         ad:dd:4b:76:04:0d:20:9c:66:54:1e:85:1e:b4:14:51:b0:e3:
         93:0a:b2:1d:2f:94:8f:d1:83:3f:43:d1:1f:95:c5:1b:f2:0d:
         5e:ea:af:4c:c8:81:5c:67:f9:f8:fe:75:cf:d1:51:0b:b3:91:
         d7:7e:f8:e1:29:20:7d:af:67:04:e5:6a:47:99:63:33:0b:23:
         f4:2a:20:4f:c0:d6:6a:06:70:89:39:f5:76:68:7d:5d:e1:6d:
         a6:62:f0:8c:21:e4:0d:50:7c:b7:67:b9:af:32:af:bf:9f:1b:
         71:c7:a5:08:09:9e:f0:7d:a4:ec:4f:a6:5e:98:e5:8b:d9:6e:
         e6:19:6d:1d:58:83:da:d5:b8:5c:3b:b8:a3:a1:23:19:8d:cf:
         7c:4b:ed:68:14:47:16:b6:45:20:8f:28:99:a3:51:2e:71:1d:
         dc:c0:df:2d:1a:b3:35:ad:49:a4:ef:af:c7:bc:4d:b9:69:71:
         3f:c6:09:ed:a8:25:93:6f:55:49:cb:18:b7:ef:35:57:3a:4f:
         53:08:fa:33:4b:3c:29:69:5e:f0:db:3d:fc:8f:ee:cc:89:6e:
         e9:a3:17:e9:45:16:ba:a1:9d:c7:c2:cc:11:72:ab:f5:92:79:
         e9:c8:d1:29:da:93:10:cd:10:21:23:86:f2:3e:76:f5:7a:76:
         a2:e3:76:fa
-----BEGIN CERTIFICATE-----
MIIFGzCCBAOgAwIBAgIBATANBgkqhkiG9w0BAQsFADCBnTELMAkGA1UEBhMCVEgx
DDAKBgNVBAgTA0JLSzEMMAoGA1UEBxMDQktLMQswCQYDVQQKEwJNVTEQMA4GA1UE
CxMHUHJvamVjdDEYMBYGA1UEAxMPRm9ydC1GdW5zdG9uIENBMRAwDgYDVQQpEwdF
YXN5UlNBMScwJQYJKoZIhvcNAQkBFhhwb25nc2Frb3JuLmRlY0BnbWFpbC5jb20w
HhcNMTcxMTEwMDc1OTI1WhcNMjcxMTA4MDc1OTI1WjCBkTELMAkGA1UEBhMCVEgx
DDAKBgNVBAgTA0JLSzEMMAoGA1UEBxMDQktLMQswCQYDVQQKEwJNVTEQMA4GA1UE
CxMHUHJvamVjdDEMMAoGA1UEAxMDSVBTMRAwDgYDVQQpEwdFYXN5UlNBMScwJQYJ
KoZIhvcNAQkBFhhwb25nc2Frb3JuLmRlY0BnbWFpbC5jb20wggEiMA0GCSqGSIb3
DQEBAQUAA4IBDwAwggEKAoIBAQCdq8VLlB953zdaDnA9JQxwn+pihQSaTaW+E+cA
SfJE9edSj7Ze20UrMs1BK3DFA9QVJpjTJW4LxkY68ZJ65LufzJKzfUtYDwL/Ro0+
ErxBqQvpVdJZQuBwI5P8xRCU4E3RKM5v5+zRdq+CxQ6jskqFb3Po7T0Zsq3q7zzI
Mht1U6GIH0NiClLVBEjNH5m48SB/rJSPPIwUvKriCxgDXFMnH6GsGKtcRQGTPjO8
DYOeTboNQAV3CgnntMF2zQ7E1NT3AVJiIrGIASYymMGprWZ9VNX9+BII0D8hNLsZ
B/mzUKsR2R9/2P3zXjqIXchzlFPABn9mxNk01kgyhMnkyEe7AgMBAAGjggFuMIIB
ajAJBgNVHRMEAjAAMBEGCWCGSAGG+EIBAQQEAwIGQDA0BglghkgBhvhCAQ0EJxYl
RWFzeS1SU0EgR2VuZXJhdGVkIFNlcnZlciBDZXJ0aWZpY2F0ZTAdBgNVHQ4EFgQU
wea8O/r/Za+v2nK8Wu+cNMP80JIwgdIGA1UdIwSByjCBx4AUhuGZRzLLFZNBr6Rk
mBl7Hj+VFsGhgaOkgaAwgZ0xCzAJBgNVBAYTAlRIMQwwCgYDVQQIEwNCS0sxDDAK
BgNVBAcTA0JLSzELMAkGA1UEChMCTVUxEDAOBgNVBAsTB1Byb2plY3QxGDAWBgNV
BAMTD0ZvcnQtRnVuc3RvbiBDQTEQMA4GA1UEKRMHRWFzeVJTQTEnMCUGCSqGSIb3
DQEJARYYcG9uZ3Nha29ybi5kZWNAZ21haWwuY29tggkAr6PODpJdMSQwEwYDVR0l
BAwwCgYIKwYBBQUHAwEwCwYDVR0PBAQDAgWgMA0GCSqGSIb3DQEBCwUAA4IBAQCt
3Ut2BA0gnGZUHoUetBRRsOOTCrIdL5SP0YM/Q9EflcUb8g1e6q9MyIFcZ/n4/nXP
0VELs5HXfvjhKSB9r2cE5WpHmWMzCyP0KiBPwNZqBnCJOfV2aH1d4W2mYvCMIeQN
UHy3Z7mvMq+/nxtxx6UICZ7wfaTsT6ZemOWL2W7mGW0dWIPa1bhcO7ijoSMZjc98
S+1oFEcWtkUgjyiZo1EucR3cwN8tGrM1rUmk76/HvE25aXE/xgntqCWTb1VJyxi3
7zVXOk9TCPozSzwpaV7w2z38j+7MiW7poxfpRRa6oZ3HwswRcqv1knnpyNEp2pMQ
zRAhI4byPnb1enai43b6
-----END CERTIFICATE-----
